; ModuleID = 'source-C-CXX/11/614.cpp'
source_filename = "source-C-CXX/11/614.cpp"
target datalayout = "e-m:e-p270:32:32-p271:32:32-p272:64:64-i64:64-f80:128-n8:16:32:64-S128"
target triple = "x86_64-pc-linux-gnu"

%"class.std::ios_base::Init" = type { i8 }
%"class.std::basic_istream" = type { i32 (...)**, i64, %"class.std::basic_ios" }
%"class.std::basic_ios" = type { %"class.std::ios_base", %"class.std::basic_ostream"*, i8, i8, %"class.std::basic_streambuf"*, %"class.std::ctype"*, %"class.std::num_put"*, %"class.std::num_get"* }
%"class.std::ios_base" = type { i32 (...)**, i64, i64, i32, i32, i32, %"struct.std::ios_base::_Callback_list"*, %"struct.std::ios_base::_Words", [8 x %"struct.std::ios_base::_Words"], i32, %"struct.std::ios_base::_Words"*, %"class.std::locale" }
%"struct.std::ios_base::_Callback_list" = type { %"struct.std::ios_base::_Callback_list"*, void (i32, %"class.std::ios_base"*, i32)*, i32, i32 }
%"struct.std::ios_base::_Words" = type { i8*, i64 }
%"class.std::locale" = type { %"class.std::locale::_Impl"* }
%"class.std::locale::_Impl" = type { i32, %"class.std::locale::facet"**, i64, %"class.std::locale::facet"**, i8** }
%"class.std::locale::facet" = type <{ i32 (...)**, i32, [4 x i8] }>
%"class.std::basic_ostream" = type { i32 (...)**, %"class.std::basic_ios" }
%"class.std::basic_streambuf" = type { i32 (...)**, i8*, i8*, i8*, i8*, i8*, i8*, %"class.std::locale" }
%"class.std::ctype" = type <{ %"class.std::locale::facet.base", [4 x i8], %struct.__locale_struct*, i8, [7 x i8], i32*, i32*, i16*, i8, [256 x i8], [256 x i8], i8, [6 x i8] }>
%"class.std::locale::facet.base" = type <{ i32 (...)**, i32 }>
%struct.__locale_struct = type { [13 x %struct.__locale_data*], i16*, i32*, i32*, [13 x i8*] }
%struct.__locale_data = type opaque
%"class.std::num_put" = type { %"class.std::locale::facet.base", [4 x i8] }
%"class.std::num_get" = type { %"class.std::locale::facet.base", [4 x i8] }

@_ZStL8__ioinit = internal global %"class.std::ios_base::Init" zeroinitializer, align 1
@__dso_handle = external hidden global i8
@_ZSt3cin = external global %"class.std::basic_istream", align 8
@_ZSt4cout = external global %"class.std::basic_ostream", align 8
@llvm.global_ctors = appending global [1 x { i32, void ()*, i8* }] [{ i32, void ()*, i8* } { i32 65535, void ()* @_GLOBAL__sub_I_614.cpp, i8* null }]

declare void @_ZNSt8ios_base4InitC1Ev(%"class.std::ios_base::Init"* nonnull align 1 dereferenceable(1)) unnamed_addr #0

; Function Attrs: nounwind
declare void @_ZNSt8ios_base4InitD1Ev(%"class.std::ios_base::Init"* nonnull align 1 dereferenceable(1)) unnamed_addr #1

; Function Attrs: nofree nounwind
declare i32 @__cxa_atexit(void (i8*)*, i8*, i8*) local_unnamed_addr #2

; Function Attrs: mustprogress norecurse sspstrong uwtable
define dso_local i32 @main() local_unnamed_addr #3 {
  %1 = alloca [17 x i32], align 16
  %2 = bitcast [17 x i32]* %1 to i8*
  call void @llvm.lifetime.start.p0i8(i64 68, i8* nonnull %2) #7
  %3 = getelementptr inbounds [17 x i32], [17 x i32]* %1, i64 0, i64 1
  %4 = bitcast i32* %3 to <4 x i32>*
  store <4 x i32> <i32 1, i32 1, i32 1, i32 1>, <4 x i32>* %4, align 4, !tbaa !5
  %5 = getelementptr inbounds [17 x i32], [17 x i32]* %1, i64 0, i64 5
  %6 = bitcast i32* %5 to <4 x i32>*
  store <4 x i32> <i32 1, i32 1, i32 1, i32 1>, <4 x i32>* %6, align 4, !tbaa !5
  %7 = getelementptr inbounds [17 x i32], [17 x i32]* %1, i64 0, i64 9
  %8 = bitcast i32* %7 to <4 x i32>*
  store <4 x i32> <i32 1, i32 1, i32 1, i32 1>, <4 x i32>* %8, align 4, !tbaa !5
  %9 = getelementptr inbounds [17 x i32], [17 x i32]* %1, i64 0, i64 13
  %10 = bitcast i32* %9 to <4 x i32>*
  store <4 x i32> <i32 1, i32 1, i32 1, i32 1>, <4 x i32>* %10, align 4, !tbaa !5
  %11 = call nonnull align 8 dereferenceable(16) %"class.std::basic_istream"* @_ZNSirsERi(%"class.std::basic_istream"* nonnull align 8 dereferenceable(16) @_ZSt3cin, i32* nonnull align 4 dereferenceable(4) %3)
  %12 = bitcast %"class.std::basic_istream"* %11 to i8**
  %13 = load i8*, i8** %12, align 8, !tbaa !9
  %14 = getelementptr i8, i8* %13, i64 -24
  %15 = bitcast i8* %14 to i64*
  %16 = load i64, i64* %15, align 8
  %17 = bitcast %"class.std::basic_istream"* %11 to i8*
  %18 = add nsw i64 %16, 32
  %19 = getelementptr inbounds i8, i8* %17, i64 %18
  %20 = bitcast i8* %19 to i32*
  %21 = load i32, i32* %20, align 8, !tbaa !11
  %22 = and i32 %21, 5
  %23 = icmp ne i32 %22, 0
  %24 = load i32, i32* %3, align 4
  %25 = icmp eq i32 %24, -1
  %26 = select i1 %23, i1 true, i1 %25
  br i1 %26, label %137, label %27

27:                                               ; preds = %0, %117
  %28 = phi i32 [ %134, %117 ], [ %24, %0 ]
  %29 = icmp eq i32 %28, 0
  br i1 %29, label %89, label %30

30:                                               ; preds = %27, %30
  %31 = phi i64 [ %34, %30 ], [ 2, %27 ]
  %32 = getelementptr inbounds [17 x i32], [17 x i32]* %1, i64 0, i64 %31
  %33 = call nonnull align 8 dereferenceable(16) %"class.std::basic_istream"* @_ZNSirsERi(%"class.std::basic_istream"* nonnull align 8 dereferenceable(16) @_ZSt3cin, i32* nonnull align 4 dereferenceable(4) %32)
  %34 = add nuw i64 %31, 1
  %35 = load i32, i32* %32, align 4, !tbaa !5
  %36 = icmp eq i32 %35, 0
  br i1 %36, label %37, label %30, !llvm.loop !19

37:                                               ; preds = %30
  %38 = trunc i64 %34 to i32
  %39 = icmp slt i32 %38, 3
  br i1 %39, label %89, label %40

40:                                               ; preds = %37
  %41 = and i64 %31, 4294967295
  %42 = add nsw i64 %41, -1
  %43 = and i64 %42, 1
  %44 = icmp eq i64 %41, 2
  br i1 %44, label %70, label %45

45:                                               ; preds = %40
  %46 = and i64 %42, -2
  br label %47

47:                                               ; preds = %148, %45
  %48 = phi i64 [ 1, %45 ], [ %150, %148 ]
  %49 = phi i32 [ 0, %45 ], [ %149, %148 ]
  %50 = phi i64 [ %46, %45 ], [ %151, %148 ]
  %51 = getelementptr inbounds [17 x i32], [17 x i32]* %1, i64 0, i64 %48
  %52 = load i32, i32* %51, align 4, !tbaa !5
  %53 = shl nsw i32 %52, 1
  br label %57

54:                                               ; preds = %57
  %55 = add nuw nsw i64 %58, 1
  %56 = icmp eq i64 %55, %41
  br i1 %56, label %64, label %57, !llvm.loop !21

57:                                               ; preds = %47, %54
  %58 = phi i64 [ 1, %47 ], [ %55, %54 ]
  %59 = getelementptr inbounds [17 x i32], [17 x i32]* %1, i64 0, i64 %58
  %60 = load i32, i32* %59, align 4, !tbaa !5
  %61 = icmp eq i32 %60, %53
  br i1 %61, label %62, label %54

62:                                               ; preds = %57
  %63 = add nsw i32 %49, 1
  br label %64

64:                                               ; preds = %54, %62
  %65 = phi i32 [ %63, %62 ], [ %49, %54 ]
  %66 = add nuw nsw i64 %48, 1
  %67 = getelementptr inbounds [17 x i32], [17 x i32]* %1, i64 0, i64 %66
  %68 = load i32, i32* %67, align 4, !tbaa !5
  %69 = shl nsw i32 %68, 1
  br label %138

70:                                               ; preds = %148, %40
  %71 = phi i32 [ undef, %40 ], [ %149, %148 ]
  %72 = phi i64 [ 1, %40 ], [ %150, %148 ]
  %73 = phi i32 [ 0, %40 ], [ %149, %148 ]
  %74 = icmp eq i64 %43, 0
  br i1 %74, label %89, label %75

75:                                               ; preds = %70
  %76 = getelementptr inbounds [17 x i32], [17 x i32]* %1, i64 0, i64 %72
  %77 = load i32, i32* %76, align 4, !tbaa !5
  %78 = shl nsw i32 %77, 1
  br label %79

79:                                               ; preds = %84, %75
  %80 = phi i64 [ 1, %75 ], [ %85, %84 ]
  %81 = getelementptr inbounds [17 x i32], [17 x i32]* %1, i64 0, i64 %80
  %82 = load i32, i32* %81, align 4, !tbaa !5
  %83 = icmp eq i32 %82, %78
  br i1 %83, label %87, label %84

84:                                               ; preds = %79
  %85 = add nuw nsw i64 %80, 1
  %86 = icmp eq i64 %85, %41
  br i1 %86, label %89, label %79, !llvm.loop !21

87:                                               ; preds = %79
  %88 = add nsw i32 %73, 1
  br label %89

89:                                               ; preds = %70, %87, %84, %27, %37
  %90 = phi i32 [ 0, %37 ], [ 0, %27 ], [ %71, %70 ], [ %88, %87 ], [ %73, %84 ]
  %91 = call nonnull align 8 dereferenceable(8) %"class.std::basic_ostream"* @_ZNSolsEi(%"class.std::basic_ostream"* nonnull align 8 dereferenceable(8) @_ZSt4cout, i32 %90)
  %92 = bitcast %"class.std::basic_ostream"* %91 to i8**
  %93 = load i8*, i8** %92, align 8, !tbaa !9
  %94 = getelementptr i8, i8* %93, i64 -24
  %95 = bitcast i8* %94 to i64*
  %96 = load i64, i64* %95, align 8
  %97 = bitcast %"class.std::basic_ostream"* %91 to i8*
  %98 = add nsw i64 %96, 240
  %99 = getelementptr inbounds i8, i8* %97, i64 %98
  %100 = bitcast i8* %99 to %"class.std::ctype"**
  %101 = load %"class.std::ctype"*, %"class.std::ctype"** %100, align 8, !tbaa !22
  %102 = icmp eq %"class.std::ctype"* %101, null
  br i1 %102, label %103, label %104

103:                                              ; preds = %89
  call void @_ZSt16__throw_bad_castv() #8
  unreachable

104:                                              ; preds = %89
  %105 = getelementptr inbounds %"class.std::ctype", %"class.std::ctype"* %101, i64 0, i32 8
  %106 = load i8, i8* %105, align 8, !tbaa !25
  %107 = icmp eq i8 %106, 0
  br i1 %107, label %111, label %108

108:                                              ; preds = %104
  %109 = getelementptr inbounds %"class.std::ctype", %"class.std::ctype"* %101, i64 0, i32 9, i64 10
  %110 = load i8, i8* %109, align 1, !tbaa !27
  br label %117

111:                                              ; preds = %104
  call void @_ZNKSt5ctypeIcE13_M_widen_initEv(%"class.std::ctype"* nonnull align 8 dereferenceable(570) %101)
  %112 = bitcast %"class.std::ctype"* %101 to i8 (%"class.std::ctype"*, i8)***
  %113 = load i8 (%"class.std::ctype"*, i8)**, i8 (%"class.std::ctype"*, i8)*** %112, align 8, !tbaa !9
  %114 = getelementptr inbounds i8 (%"class.std::ctype"*, i8)*, i8 (%"class.std::ctype"*, i8)** %113, i64 6
  %115 = load i8 (%"class.std::ctype"*, i8)*, i8 (%"class.std::ctype"*, i8)** %114, align 8
  %116 = call signext i8 %115(%"class.std::ctype"* nonnull align 8 dereferenceable(570) %101, i8 signext 10)
  br label %117

117:                                              ; preds = %108, %111
  %118 = phi i8 [ %110, %108 ], [ %116, %111 ]
  %119 = call nonnull align 8 dereferenceable(8) %"class.std::basic_ostream"* @_ZNSo3putEc(%"class.std::basic_ostream"* nonnull align 8 dereferenceable(8) %91, i8 signext %118)
  %120 = call nonnull align 8 dereferenceable(8) %"class.std::basic_ostream"* @_ZNSo5flushEv(%"class.std::basic_ostream"* nonnull align 8 dereferenceable(8) %119)
  %121 = call nonnull align 8 dereferenceable(16) %"class.std::basic_istream"* @_ZNSirsERi(%"class.std::basic_istream"* nonnull align 8 dereferenceable(16) @_ZSt3cin, i32* nonnull align 4 dereferenceable(4) %3)
  %122 = bitcast %"class.std::basic_istream"* %121 to i8**
  %123 = load i8*, i8** %122, align 8, !tbaa !9
  %124 = getelementptr i8, i8* %123, i64 -24
  %125 = bitcast i8* %124 to i64*
  %126 = load i64, i64* %125, align 8
  %127 = bitcast %"class.std::basic_istream"* %121 to i8*
  %128 = add nsw i64 %126, 32
  %129 = getelementptr inbounds i8, i8* %127, i64 %128
  %130 = bitcast i8* %129 to i32*
  %131 = load i32, i32* %130, align 8, !tbaa !11
  %132 = and i32 %131, 5
  %133 = icmp ne i32 %132, 0
  %134 = load i32, i32* %3, align 4
  %135 = icmp eq i32 %134, -1
  %136 = select i1 %133, i1 true, i1 %135
  br i1 %136, label %137, label %27, !llvm.loop !28

137:                                              ; preds = %117, %0
  call void @llvm.lifetime.end.p0i8(i64 68, i8* nonnull %2) #7
  ret i32 0

138:                                              ; preds = %143, %64
  %139 = phi i64 [ 1, %64 ], [ %144, %143 ]
  %140 = getelementptr inbounds [17 x i32], [17 x i32]* %1, i64 0, i64 %139
  %141 = load i32, i32* %140, align 4, !tbaa !5
  %142 = icmp eq i32 %141, %69
  br i1 %142, label %146, label %143

143:                                              ; preds = %138
  %144 = add nuw nsw i64 %139, 1
  %145 = icmp eq i64 %144, %41
  br i1 %145, label %148, label %138, !llvm.loop !21

146:                                              ; preds = %138
  %147 = add nsw i32 %65, 1
  br label %148

148:                                              ; preds = %143, %146
  %149 = phi i32 [ %147, %146 ], [ %65, %143 ]
  %150 = add nuw nsw i64 %48, 2
  %151 = add i64 %50, -2
  %152 = icmp eq i64 %151, 0
  br i1 %152, label %70, label %47, !llvm.loop !29
}

; Function Attrs: argmemonly mustprogress nofree nosync nounwind willreturn
declare void @llvm.lifetime.start.p0i8(i64 immarg, i8* nocapture) #4

declare nonnull align 8 dereferenceable(16) %"class.std::basic_istream"* @_ZNSirsERi(%"class.std::basic_istream"* nonnull align 8 dereferenceable(16), i32* nonnull align 4 dereferenceable(4)) local_unnamed_addr #0

declare nonnull align 8 dereferenceable(8) %"class.std::basic_ostream"* @_ZNSolsEi(%"class.std::basic_ostream"* nonnull align 8 dereferenceable(8), i32) local_unnamed_addr #0

; Function Attrs: argmemonly mustprogress nofree nosync nounwind willreturn
declare void @llvm.lifetime.end.p0i8(i64 immarg, i8* nocapture) #4

declare nonnull align 8 dereferenceable(8) %"class.std::basic_ostream"* @_ZNSo3putEc(%"class.std::basic_ostream"* nonnull align 8 dereferenceable(8), i8 signext) local_unnamed_addr #0

declare nonnull align 8 dereferenceable(8) %"class.std::basic_ostream"* @_ZNSo5flushEv(%"class.std::basic_ostream"* nonnull align 8 dereferenceable(8)) local_unnamed_addr #0

; Function Attrs: noreturn
declare void @_ZSt16__throw_bad_castv() local_unnamed_addr #5

declare void @_ZNKSt5ctypeIcE13_M_widen_initEv(%"class.std::ctype"* nonnull align 8 dereferenceable(570)) local_unnamed_addr #0

; Function Attrs: sspstrong uwtable
define internal void @_GLOBAL__sub_I_614.cpp() #6 section ".text.startup" {
  tail call void @_ZNSt8ios_base4InitC1Ev(%"class.std::ios_base::Init"* nonnull align 1 dereferenceable(1) @_ZStL8__ioinit)
  %1 = tail call i32 @__cxa_atexit(void (i8*)* bitcast (void (%"class.std::ios_base::Init"*)* @_ZNSt8ios_base4InitD1Ev to void (i8*)*), i8* getelementptr inbounds (%"class.std::ios_base::Init", %"class.std::ios_base::Init"* @_ZStL8__ioinit, i64 0, i32 0), i8* nonnull @__dso_handle) #7
  ret void
}


!llvm.module.flags = !{!0, !1, !2, !3}
!llvm.ident = !{!4}

!0 = !{i32 1, !"wchar_size", i32 4}
!1 = !{i32 7, !"PIC Level", i32 2}
!2 = !{i32 7, !"PIE Level", i32 2}
!3 = !{i32 7, !"uwtable", i32 1}
!4 = !{!"clang version 13.0.0"}
!5 = !{!6, !6, i64 0}
!6 = !{!"int", !7, i64 0}
!7 = !{!"omnipotent char", !8, i64 0}
!8 = !{!"Simple C++ TBAA"}
!9 = !{!10, !10, i64 0}
!10 = !{!"vtable pointer", !8, i64 0}
!11 = !{!12, !15, i64 32}
!12 = !{!"_ZTSSt8ios_base", !13, i64 8, !13, i64 16, !14, i64 24, !15, i64 28, !15, i64 32, !16, i64 40, !17, i64 48, !7, i64 64, !6, i64 192, !16, i64 200, !18, i64 208}
!13 = !{!"long", !7, i64 0}
!14 = !{!"_ZTSSt13_Ios_Fmtflags", !7, i64 0}
!15 = !{!"_ZTSSt12_Ios_Iostate", !7, i64 0}
!16 = !{!"any pointer", !7, i64 0}
!17 = !{!"_ZTSNSt8ios_base6_WordsE", !16, i64 0, !13, i64 8}
!18 = !{!"_ZTSSt6locale", !16, i64 0}
!19 = distinct !{!19, !20}
!20 = !{!"llvm.loop.mustprogress"}
!21 = distinct !{!21, !20}
!22 = !{!23, !16, i64 240}
!23 = !{!"_ZTSSt9basic_iosIcSt11char_traitsIcEE", !16, i64 216, !7, i64 224, !24, i64 225, !16, i64 232, !16, i64 240, !16, i64 248, !16, i64 256}
!24 = !{!"bool", !7, i64 0}
!25 = !{!26, !7, i64 56}
!26 = !{!"_ZTSSt5ctypeIcE", !16, i64 16, !24, i64 24, !16, i64 32, !16, i64 40, !16, i64 48, !7, i64 56, !7, i64 57, !7, i64 313, !7, i64 569}
!27 = !{!7, !7, i64 0}
!28 = distinct !{!28, !20}
!29 = distinct !{!29, !20}
